; Function Attrs: nounwind uwtable
define internal fastcc range(i64 -1, 2147483648) i64 @fmap_readn(ptr noundef %0, ptr noundef nonnull writeonly captures(none) %1, i64 noundef %2, i64 noundef range(i64 0, 4294967296) %3) unnamed_addr #0 {
  %5 = getelementptr inbounds nuw i8, ptr %0, i64 88
  %6 = load i64, ptr %5, align 8
  %7 = icmp ne i64 %2, %6
  %8 = icmp ne i64 %3, 0
  %or.cond = and i1 %8, %7
  br i1 %or.cond, label %9, label %19

9:                                                ; preds = %4
  %10 = icmp ugt i64 %2, %6
  br i1 %10, label %19, label %11

11:                                               ; preds = %9
  %12 = sub nuw i64 %6, %2
  %spec.select = tail call i64 @llvm.umin.i64(i64 %3, i64 %12)
  %13 = getelementptr inbounds nuw i8, ptr %0, i64 104
  %14 = load ptr, ptr %13, align 8
  %15 = tail call ptr %14(ptr noundef nonnull %0, i64 noundef %2, i64 noundef %spec.select, i32 noundef 0) #8
  %.not = icmp eq ptr %15, null
  br i1 %.not, label %19, label %16

16:                                               ; preds = %11
  tail call void @llvm.memcpy.p0.p0.i64(ptr nonnull align 1 %1, ptr nonnull align 1 %15, i64 %spec.select, i1 false)
  %17 = icmp samesign ult i64 %spec.select, 2147483648
  %18 = select i1 %17, i64 %spec.select, i64 -1
  br label %19

19:                                               ; preds = %11, %9, %4, %16
  %.0 = phi i64 [ %18, %16 ], [ 0, %4 ], [ -1, %9 ], [ -1, %11 ]
  ret i64 %.0
}